#include <math.h>
#include <stdio.h>
#include <stdlib.h>
#include <string.h>
#include <iostream>
using namespace std;

/**
* ??????
* ???1000012847
* ??????????
**/
int main()
{
	char *p , str[101];      //??????*p??????str[101]
	int flag = 0;            //????flag????????
	
	cin.getline(str , 101);    //?????

	p = str;                  //????????????

	for(; *p != 0; p++)        //??????????????1
	{
		if(*p == ' ')          //??????
			if(flag == 0)       //????0?????????
			{
				cout << *p;    //????????1
				flag = 1;
			}

		if(*p != ' ')          //???????
		{
			cout << *p;        //?????????
			flag = 0;
		}
	}
	cout << endl;              //??????

	return 0;
}
